target datalayout = "e-m:e-p270:32:32-p271:32:32-p272:64:64-i64:64-i128:128-f80:128-n8:16:32:64-S128"
target triple = "x86_64-pc-linux-gnu"

%struct.pmix_mca_base_framework_t = type { ptr, ptr, ptr, ptr, ptr, ptr, i32, i32, ptr, ptr, i32, i32, %struct.pmix_list_t, %struct.pmix_list_t }
%struct.pmix_list_t = type { %struct.pmix_object_t, %struct.pmix_list_item_t, i64 }
%struct.pmix_object_t = type { %union.pthread_mutex_t, ptr, i32, %struct.pmix_tma }
%union.pthread_mutex_t = type { %struct.__pthread_mutex_s }
%struct.__pthread_mutex_s = type { i32, i32, i32, i32, i32, i16, i16, %struct.__pthread_internal_list }
%struct.__pthread_internal_list = type { ptr, ptr }
%struct.pmix_tma = type { ptr, ptr, ptr, ptr, ptr, ptr, ptr, ptr }
%struct.pmix_list_item_t = type { %struct.pmix_object_t, ptr, ptr, i32 }
%struct.pmix_output_desc_t = type { i8, i8, i32, i8, i32, ptr, ptr, i32, ptr, i32, i8, i8, i8, i8, ptr, i32, i32 }
%struct.pmix_pnet_globals_t = type { %struct.pmix_list_t, %struct.pmix_list_t, %struct.pmix_list_t, i8 }
%struct.pmix_pnet_base_active_module_t = type { %struct.pmix_list_item_t, i32, ptr, ptr }
%struct.pmix_pnet_module_t = type { ptr, ptr, ptr, ptr, ptr, ptr, ptr, ptr, ptr, ptr, ptr, ptr, ptr, ptr }

@pmix_pnet_base_framework = external global %struct.pmix_mca_base_framework_t, align 8
@pmix_output_info = external global [0 x %struct.pmix_output_desc_t], align 8
@pmix_pnet_globals = external global %struct.pmix_pnet_globals_t, align 8
@.str.8 = private unnamed_addr constant [14 x i8] c"COLLECTING %s\00", align 1

; Function Attrs: nounwind uwtable
define i32 @pmix_pnet_base_collect_inventory(ptr noundef %0, i64 noundef %1, ptr noundef %2) #0 {
  %4 = alloca i32, align 4
  %5 = alloca ptr, align 8
  %6 = alloca i64, align 8
  %7 = alloca ptr, align 8
  %8 = alloca ptr, align 8
  %9 = alloca i32, align 4
  %10 = alloca i32, align 4
  store ptr %0, ptr %5, align 8, !tbaa !8
  store i64 %1, ptr %6, align 8, !tbaa !10
  store ptr %2, ptr %7, align 8, !tbaa !12
  call void @llvm.lifetime.start.p0(i64 8, ptr %8) #11
  call void @llvm.lifetime.start.p0(i64 4, ptr %9) #11
  %11 = load ptr, ptr getelementptr inbounds nuw (%struct.pmix_list_item_t, ptr getelementptr inbounds nuw (%struct.pmix_list_t, ptr @pmix_pnet_globals, i32 0, i32 1), i32 0, i32 1), align 8, !tbaa !63
  store ptr %11, ptr %8, align 8, !tbaa !65
  br label %12

12:                                               ; preds = %58, %3
  %13 = load ptr, ptr %8, align 8, !tbaa !65
  %14 = icmp ne ptr %13, getelementptr inbounds nuw (%struct.pmix_list_t, ptr @pmix_pnet_globals, i32 0, i32 1)
  br i1 %14, label %15, label %62

15:                                               ; preds = %12
  %16 = load ptr, ptr %8, align 8, !tbaa !65
  %17 = getelementptr inbounds nuw %struct.pmix_pnet_base_active_module_t, ptr %16, i32 0, i32 2
  %18 = load ptr, ptr %17, align 8, !tbaa !67
  %19 = getelementptr inbounds nuw %struct.pmix_pnet_module_t, ptr %18, i32 0, i32 9
  %20 = load ptr, ptr %19, align 8, !tbaa !123
  %21 = icmp ne ptr null, %20
  br i1 %21, label %22, label %57

22:                                               ; preds = %15
  %23 = load i32, ptr getelementptr inbounds nuw (%struct.pmix_mca_base_framework_t, ptr @pmix_pnet_base_framework, i32 0, i32 11), align 4, !tbaa !14
  %24 = icmp sge i32 %23, 0
  br i1 %24, label %25, label %42

25:                                               ; preds = %22
  %26 = load i32, ptr getelementptr inbounds nuw (%struct.pmix_mca_base_framework_t, ptr @pmix_pnet_base_framework, i32 0, i32 11), align 4, !tbaa !14
  %27 = icmp slt i32 %26, 64
  br i1 %27, label %28, label %42

28:                                               ; preds = %25
  %29 = load i32, ptr getelementptr inbounds nuw (%struct.pmix_mca_base_framework_t, ptr @pmix_pnet_base_framework, i32 0, i32 11), align 4, !tbaa !14
  %30 = sext i32 %29 to i64
  %31 = getelementptr inbounds [0 x %struct.pmix_output_desc_t], ptr @pmix_output_info, i64 0, i64 %30
  %32 = getelementptr inbounds nuw %struct.pmix_output_desc_t, ptr %31, i32 0, i32 2
  %33 = load i32, ptr %32, align 4, !tbaa !24
  %34 = icmp sge i32 %33, 5
  br i1 %34, label %35, label %42

35:                                               ; preds = %28
  %36 = load i32, ptr getelementptr inbounds nuw (%struct.pmix_mca_base_framework_t, ptr @pmix_pnet_base_framework, i32 0, i32 11), align 4, !tbaa !14
  %37 = load ptr, ptr %8, align 8, !tbaa !65
  %38 = getelementptr inbounds nuw %struct.pmix_pnet_base_active_module_t, ptr %37, i32 0, i32 2
  %39 = load ptr, ptr %38, align 8, !tbaa !67
  %40 = getelementptr inbounds nuw %struct.pmix_pnet_module_t, ptr %39, i32 0, i32 0
  %41 = load ptr, ptr %40, align 8, !tbaa !124
  call void (i32, ptr, ...) @pmix_output(i32 noundef %36, ptr noundef @.str.8, ptr noundef %41)
  br label %42

42:                                               ; preds = %35, %28, %25, %22
  %43 = load ptr, ptr %8, align 8, !tbaa !65
  %44 = getelementptr inbounds nuw %struct.pmix_pnet_base_active_module_t, ptr %43, i32 0, i32 2
  %45 = load ptr, ptr %44, align 8, !tbaa !67
  %46 = getelementptr inbounds nuw %struct.pmix_pnet_module_t, ptr %45, i32 0, i32 9
  %47 = load ptr, ptr %46, align 8, !tbaa !123
  %48 = load ptr, ptr %5, align 8, !tbaa !8
  %49 = load i64, ptr %6, align 8, !tbaa !10
  %50 = load ptr, ptr %7, align 8, !tbaa !12
  %51 = call i32 %47(ptr noundef %48, i64 noundef %49, ptr noundef %50)
  store i32 %51, ptr %9, align 4, !tbaa !72
  %52 = load i32, ptr %9, align 4, !tbaa !72
  %53 = icmp ne i32 0, %52
  br i1 %53, label %54, label %56

54:                                               ; preds = %42
  %55 = load i32, ptr %9, align 4, !tbaa !72
  store i32 %55, ptr %4, align 4
  store i32 1, ptr %10, align 4
  br label %63

56:                                               ; preds = %42
  br label %57

57:                                               ; preds = %56, %15
  br label %58

58:                                               ; preds = %57
  %59 = load ptr, ptr %8, align 8, !tbaa !65
  %60 = getelementptr inbounds nuw %struct.pmix_list_item_t, ptr %59, i32 0, i32 1
  %61 = load ptr, ptr %60, align 8, !tbaa !50
  store ptr %61, ptr %8, align 8, !tbaa !65
  br label %12, !llvm.loop !125

62:                                               ; preds = %12
  store i32 0, ptr %4, align 4
  store i32 1, ptr %10, align 4
  br label %63

63:                                               ; preds = %62, %54
  call void @llvm.lifetime.end.p0(i64 4, ptr %9) #11
  call void @llvm.lifetime.end.p0(i64 8, ptr %8) #11
  %64 = load i32, ptr %4, align 4
  ret i32 %64
}